target datalayout = "e-m:e-p270:32:32-p271:32:32-p272:64:64-i64:64-i128:128-f80:128-n8:16:32:64-S128"
target triple = "x86_64-pc-linux-gnu"

%struct.ImVec2 = type { float, float }
%struct.ImVec4 = type { float, float, float, float }
%struct.ImFontAtlas = type <{ i32, [4 x i8], i64, i32, i32, ptr, i8, i8, i8, [5 x i8], ptr, ptr, i32, i32, %struct.ImVec2, %struct.ImVec2, %struct.ImVector.10, %struct.ImVector.11, %struct.ImVector.12, [33 x %struct.ImVec4], ptr, i32, i32, i32, [4 x i8] }>
%struct.ImVector.10 = type { i32, i32, ptr }
%struct.ImVector.11 = type { i32, i32, ptr }
%struct.ImVector.12 = type { i32, i32, ptr }
%struct.ImFontAtlasCustomRect = type { i16, i16, i16, i16, i32, float, %struct.ImVec2, ptr }

; Function Attrs: inlinehint mustprogress uwtable
define linkonce_odr void @_ZN8ImVectorI21ImFontAtlasCustomRectE7reserveEi(ptr noundef nonnull align 8 dereferenceable(16) %0, i32 noundef %1) #5 comdat align 2 {
  %3 = alloca ptr, align 8
  %4 = alloca i32, align 4
  %5 = alloca ptr, align 8
  store ptr %0, ptr %3, align 8, !tbaa !314
  store i32 %1, ptr %4, align 4, !tbaa !27
  %6 = load ptr, ptr %3, align 8
  %7 = load i32, ptr %4, align 4, !tbaa !27
  %8 = getelementptr inbounds nuw %struct.ImVector.11, ptr %6, i32 0, i32 1
  %9 = load i32, ptr %8, align 4, !tbaa !316
  %10 = icmp sle i32 %7, %9
  br i1 %10, label %11, label %12

11:                                               ; preds = %2
  br label %35

12:                                               ; preds = %2
  call void @llvm.lifetime.start.p0(i64 8, ptr %5) #17
  %13 = load i32, ptr %4, align 4, !tbaa !27
  %14 = sext i32 %13 to i64
  %15 = mul i64 %14, 32
  %16 = call noundef ptr @_ZN5ImGui8MemAllocEm(i64 noundef %15)
  store ptr %16, ptr %5, align 8, !tbaa !359
  %17 = getelementptr inbounds nuw %struct.ImVector.11, ptr %6, i32 0, i32 2
  %18 = load ptr, ptr %17, align 8, !tbaa !318
  %19 = icmp ne ptr %18, null
  br i1 %19, label %20, label %30

20:                                               ; preds = %12
  %21 = load ptr, ptr %5, align 8, !tbaa !359
  %22 = getelementptr inbounds nuw %struct.ImVector.11, ptr %6, i32 0, i32 2
  %23 = load ptr, ptr %22, align 8, !tbaa !318
  %24 = getelementptr inbounds nuw %struct.ImVector.11, ptr %6, i32 0, i32 0
  %25 = load i32, ptr %24, align 8, !tbaa !317
  %26 = sext i32 %25 to i64
  %27 = mul i64 %26, 32
  call void @llvm.memcpy.p0.p0.i64(ptr align 8 %21, ptr align 8 %23, i64 %27, i1 false)
  %28 = getelementptr inbounds nuw %struct.ImVector.11, ptr %6, i32 0, i32 2
  %29 = load ptr, ptr %28, align 8, !tbaa !318
  call void @_ZN5ImGui7MemFreeEPv(ptr noundef %29)
  br label %30

30:                                               ; preds = %20, %12
  %31 = load ptr, ptr %5, align 8, !tbaa !359
  %32 = getelementptr inbounds nuw %struct.ImVector.11, ptr %6, i32 0, i32 2
  store ptr %31, ptr %32, align 8, !tbaa !318
  %33 = load i32, ptr %4, align 4, !tbaa !27
  %34 = getelementptr inbounds nuw %struct.ImVector.11, ptr %6, i32 0, i32 1
  store i32 %33, ptr %34, align 4, !tbaa !316
  call void @llvm.lifetime.end.p0(i64 8, ptr %5) #17
  br label %35

35:                                               ; preds = %30, %11
  ret void
}

; Function Attrs: inlinehint mustprogress nounwind uwtable
define linkonce_odr noundef i32 @_ZNK8ImVectorI21ImFontAtlasCustomRectE14_grow_capacityEi(ptr noundef nonnull align 8 dereferenceable(16) %0, i32 noundef %1) #7 comdat align 2 {
  %3 = alloca ptr, align 8
  %4 = alloca i32, align 4
  %5 = alloca i32, align 4
  store ptr %0, ptr %3, align 8, !tbaa !314
  store i32 %1, ptr %4, align 4, !tbaa !27
  %6 = load ptr, ptr %3, align 8
  call void @llvm.lifetime.start.p0(i64 4, ptr %5) #17
  %7 = getelementptr inbounds nuw %struct.ImVector.11, ptr %6, i32 0, i32 1
  %8 = load i32, ptr %7, align 4, !tbaa !316
  %9 = icmp ne i32 %8, 0
  br i1 %9, label %10, label %17

10:                                               ; preds = %2
  %11 = getelementptr inbounds nuw %struct.ImVector.11, ptr %6, i32 0, i32 1
  %12 = load i32, ptr %11, align 4, !tbaa !316
  %13 = getelementptr inbounds nuw %struct.ImVector.11, ptr %6, i32 0, i32 1
  %14 = load i32, ptr %13, align 4, !tbaa !316
  %15 = sdiv i32 %14, 2
  %16 = add nsw i32 %12, %15
  br label %18

17:                                               ; preds = %2
  br label %18

18:                                               ; preds = %17, %10
  %19 = phi i32 [ %16, %10 ], [ 8, %17 ]
  store i32 %19, ptr %5, align 4, !tbaa !27
  %20 = load i32, ptr %5, align 4, !tbaa !27
  %21 = load i32, ptr %4, align 4, !tbaa !27
  %22 = icmp sgt i32 %20, %21
  br i1 %22, label %23, label %25

23:                                               ; preds = %18
  %24 = load i32, ptr %5, align 4, !tbaa !27
  br label %27

25:                                               ; preds = %18
  %26 = load i32, ptr %4, align 4, !tbaa !27
  br label %27

27:                                               ; preds = %25, %23
  %28 = phi i32 [ %24, %23 ], [ %26, %25 ]
  call void @llvm.lifetime.end.p0(i64 4, ptr %5) #17
  ret i32 %28
}

; Function Attrs: mustprogress nounwind uwtable
define linkonce_odr void @_ZN6ImVec2C2Eff(ptr noundef nonnull align 4 dereferenceable(8) %0, float noundef %1, float noundef %2) unnamed_addr #3 comdat align 2 {
  %4 = alloca ptr, align 8
  %5 = alloca float, align 4
  %6 = alloca float, align 4
  store ptr %0, ptr %4, align 8, !tbaa !33
  store float %1, ptr %5, align 4, !tbaa !11
  store float %2, ptr %6, align 4, !tbaa !11
  %7 = load ptr, ptr %4, align 8
  %8 = getelementptr inbounds nuw %struct.ImVec2, ptr %7, i32 0, i32 0
  %9 = load float, ptr %5, align 4, !tbaa !11
  store float %9, ptr %8, align 4, !tbaa !34
  %10 = getelementptr inbounds nuw %struct.ImVec2, ptr %7, i32 0, i32 1
  %11 = load float, ptr %6, align 4, !tbaa !11
  store float %11, ptr %10, align 4, !tbaa !35
  ret void
}

; Function Attrs: mustprogress nounwind uwtable
define linkonce_odr void @_ZN6ImVec2C2Ev(ptr noundef nonnull align 4 dereferenceable(8) %0) unnamed_addr #3 comdat align 2 {
  %2 = alloca ptr, align 8
  store ptr %0, ptr %2, align 8, !tbaa !33
  %3 = load ptr, ptr %2, align 8
  %4 = getelementptr inbounds nuw %struct.ImVec2, ptr %3, i32 0, i32 0
  store float 0.000000e+00, ptr %4, align 4, !tbaa !34
  %5 = getelementptr inbounds nuw %struct.ImVec2, ptr %3, i32 0, i32 1
  store float 0.000000e+00, ptr %5, align 4, !tbaa !35
  ret void
}

; Function Attrs: inlinehint mustprogress uwtable
define linkonce_odr void @_ZN8ImVectorI21ImFontAtlasCustomRectE9push_backERKS0_(ptr noundef nonnull align 8 dereferenceable(16) %0, ptr noundef nonnull align 8 dereferenceable(32) %1) #5 comdat align 2 {
  %3 = alloca ptr, align 8
  %4 = alloca ptr, align 8
  store ptr %0, ptr %3, align 8, !tbaa !314
  store ptr %1, ptr %4, align 8, !tbaa !359
  %5 = load ptr, ptr %3, align 8
  %6 = getelementptr inbounds nuw %struct.ImVector.11, ptr %5, i32 0, i32 0
  %7 = load i32, ptr %6, align 8, !tbaa !317
  %8 = getelementptr inbounds nuw %struct.ImVector.11, ptr %5, i32 0, i32 1
  %9 = load i32, ptr %8, align 4, !tbaa !316
  %10 = icmp eq i32 %7, %9
  br i1 %10, label %11, label %16

11:                                               ; preds = %2
  %12 = getelementptr inbounds nuw %struct.ImVector.11, ptr %5, i32 0, i32 0
  %13 = load i32, ptr %12, align 8, !tbaa !317
  %14 = add nsw i32 %13, 1
  %15 = call noundef i32 @_ZNK8ImVectorI21ImFontAtlasCustomRectE14_grow_capacityEi(ptr noundef nonnull align 8 dereferenceable(16) %5, i32 noundef %14)
  call void @_ZN8ImVectorI21ImFontAtlasCustomRectE7reserveEi(ptr noundef nonnull align 8 dereferenceable(16) %5, i32 noundef %15)
  br label %16

16:                                               ; preds = %11, %2
  %17 = getelementptr inbounds nuw %struct.ImVector.11, ptr %5, i32 0, i32 2
  %18 = load ptr, ptr %17, align 8, !tbaa !318
  %19 = getelementptr inbounds nuw %struct.ImVector.11, ptr %5, i32 0, i32 0
  %20 = load i32, ptr %19, align 8, !tbaa !317
  %21 = sext i32 %20 to i64
  %22 = getelementptr inbounds %struct.ImFontAtlasCustomRect, ptr %18, i64 %21
  %23 = load ptr, ptr %4, align 8, !tbaa !359
  call void @llvm.memcpy.p0.p0.i64(ptr align 8 %22, ptr align 8 %23, i64 32, i1 false)
  %24 = getelementptr inbounds nuw %struct.ImVector.11, ptr %5, i32 0, i32 0
  %25 = load i32, ptr %24, align 8, !tbaa !317
  %26 = add nsw i32 %25, 1
  store i32 %26, ptr %24, align 8, !tbaa !317
  ret void
}

; Function Attrs: mustprogress uwtable
define linkonce_odr void @_ZN21ImFontAtlasCustomRectC2Ev(ptr noundef nonnull align 8 dereferenceable(32) %0) unnamed_addr #6 comdat align 2 {
  %2 = alloca ptr, align 8
  %3 = alloca %struct.ImVec2, align 4
  store ptr %0, ptr %2, align 8, !tbaa !359
  %4 = load ptr, ptr %2, align 8
  %5 = getelementptr inbounds nuw %struct.ImFontAtlasCustomRect, ptr %4, i32 0, i32 6
  call void @_ZN6ImVec2C2Ev(ptr noundef nonnull align 4 dereferenceable(8) %5)
  %6 = getelementptr inbounds nuw %struct.ImFontAtlasCustomRect, ptr %4, i32 0, i32 1
  store i16 -1, ptr %6, align 2, !tbaa !360
  %7 = getelementptr inbounds nuw %struct.ImFontAtlasCustomRect, ptr %4, i32 0, i32 0
  store i16 -1, ptr %7, align 8, !tbaa !361
  %8 = getelementptr inbounds nuw %struct.ImFontAtlasCustomRect, ptr %4, i32 0, i32 3
  store i16 0, ptr %8, align 2, !tbaa !357
  %9 = getelementptr inbounds nuw %struct.ImFontAtlasCustomRect, ptr %4, i32 0, i32 2
  store i16 0, ptr %9, align 4, !tbaa !355
  %10 = getelementptr inbounds nuw %struct.ImFontAtlasCustomRect, ptr %4, i32 0, i32 4
  %11 = load i32, ptr %10, align 8
  %12 = and i32 %11, -2147483648
  %13 = or i32 %12, 0
  store i32 %13, ptr %10, align 8
  %14 = getelementptr inbounds nuw %struct.ImFontAtlasCustomRect, ptr %4, i32 0, i32 4
  %15 = load i32, ptr %14, align 8
  %16 = and i32 %15, 2147483647
  %17 = or i32 %16, 0
  store i32 %17, ptr %14, align 8
  %18 = getelementptr inbounds nuw %struct.ImFontAtlasCustomRect, ptr %4, i32 0, i32 5
  store float 0.000000e+00, ptr %18, align 4, !tbaa !362
  call void @llvm.lifetime.start.p0(i64 8, ptr %3) #17
  call void @_ZN6ImVec2C2Eff(ptr noundef nonnull align 4 dereferenceable(8) %3, float noundef 0.000000e+00, float noundef 0.000000e+00)
  %19 = getelementptr inbounds nuw %struct.ImFontAtlasCustomRect, ptr %4, i32 0, i32 6
  call void @llvm.memcpy.p0.p0.i64(ptr align 8 %19, ptr align 4 %3, i64 8, i1 false), !tbaa.struct !28
  call void @llvm.lifetime.end.p0(i64 8, ptr %3) #17
  %20 = getelementptr inbounds nuw %struct.ImFontAtlasCustomRect, ptr %4, i32 0, i32 7
  store ptr null, ptr %20, align 8, !tbaa !363
  ret void
}

; Function Attrs: mustprogress uwtable
define noundef i32 @_ZN11ImFontAtlas22AddCustomRectFontGlyphEP6ImFonttiifRK6ImVec2(ptr noundef nonnull align 8 dereferenceable(676) %0, ptr noundef %1, i16 noundef zeroext %2, i32 noundef %3, i32 noundef %4, float noundef %5, ptr noundef nonnull align 4 dereferenceable(8) %6) #6 align 2 {
  %8 = alloca ptr, align 8
  %9 = alloca ptr, align 8
  %10 = alloca i16, align 2
  %11 = alloca i32, align 4
  %12 = alloca i32, align 4
  %13 = alloca float, align 4
  %14 = alloca ptr, align 8
  %15 = alloca %struct.ImFontAtlasCustomRect, align 8
  store ptr %0, ptr %8, align 8, !tbaa !298
  store ptr %1, ptr %9, align 8, !tbaa !185
  store i16 %2, ptr %10, align 2, !tbaa !156
  store i32 %3, ptr %11, align 4, !tbaa !27
  store i32 %4, ptr %12, align 4, !tbaa !27
  store float %5, ptr %13, align 4, !tbaa !11
  store ptr %6, ptr %14, align 8, !tbaa !33
  %16 = load ptr, ptr %8, align 8
  call void @llvm.lifetime.start.p0(i64 32, ptr %15) #17
  call void @_ZN21ImFontAtlasCustomRectC2Ev(ptr noundef nonnull align 8 dereferenceable(32) %15)
  %17 = load i32, ptr %11, align 4, !tbaa !27
  %18 = trunc i32 %17 to i16
  %19 = getelementptr inbounds nuw %struct.ImFontAtlasCustomRect, ptr %15, i32 0, i32 2
  store i16 %18, ptr %19, align 4, !tbaa !355
  %20 = load i32, ptr %12, align 4, !tbaa !27
  %21 = trunc i32 %20 to i16
  %22 = getelementptr inbounds nuw %struct.ImFontAtlasCustomRect, ptr %15, i32 0, i32 3
  store i16 %21, ptr %22, align 2, !tbaa !357
  %23 = load i16, ptr %10, align 2, !tbaa !156
  %24 = zext i16 %23 to i32
  %25 = getelementptr inbounds nuw %struct.ImFontAtlasCustomRect, ptr %15, i32 0, i32 4
  %26 = load i32, ptr %25, align 8
  %27 = and i32 %24, 2147483647
  %28 = and i32 %26, -2147483648
  %29 = or i32 %28, %27
  store i32 %29, ptr %25, align 8
  %30 = getelementptr inbounds nuw %struct.ImFontAtlasCustomRect, ptr %15, i32 0, i32 4
  %31 = load i32, ptr %30, align 8
  %32 = and i32 %31, 2147483647
  %33 = or i32 %32, 0
  store i32 %33, ptr %30, align 8
  %34 = load float, ptr %13, align 4, !tbaa !11
  %35 = getelementptr inbounds nuw %struct.ImFontAtlasCustomRect, ptr %15, i32 0, i32 5
  store float %34, ptr %35, align 4, !tbaa !362
  %36 = load ptr, ptr %14, align 8, !tbaa !33
  %37 = getelementptr inbounds nuw %struct.ImFontAtlasCustomRect, ptr %15, i32 0, i32 6
  call void @llvm.memcpy.p0.p0.i64(ptr align 8 %37, ptr align 4 %36, i64 8, i1 false), !tbaa.struct !28
  %38 = load ptr, ptr %9, align 8, !tbaa !185
  %39 = getelementptr inbounds nuw %struct.ImFontAtlasCustomRect, ptr %15, i32 0, i32 7
  store ptr %38, ptr %39, align 8, !tbaa !363
  %40 = getelementptr inbounds nuw %struct.ImFontAtlas, ptr %16, i32 0, i32 17
  call void @_ZN8ImVectorI21ImFontAtlasCustomRectE9push_backERKS0_(ptr noundef nonnull align 8 dereferenceable(16) %40, ptr noundef nonnull align 8 dereferenceable(32) %15)
  %41 = getelementptr inbounds nuw %struct.ImFontAtlas, ptr %16, i32 0, i32 17
  %42 = getelementptr inbounds nuw %struct.ImVector.11, ptr %41, i32 0, i32 0
  %43 = load i32, ptr %42, align 8, !tbaa !358
  %44 = sub nsw i32 %43, 1
  call void @llvm.lifetime.end.p0(i64 32, ptr %15) #17
  ret i32 %44
}