; Function Attrs: mustprogress uwtable
define noundef range(i32 -2147483648, 2147483647) i32 @_ZN11ImFontAtlas22AddCustomRectFontGlyphEP6ImFonttiifRK6ImVec2(ptr noundef nonnull align 8 captures(none) dereferenceable(676) %0, ptr noundef %1, i16 noundef zeroext %2, i32 noundef %3, i32 noundef %4, float noundef %5, ptr noundef nonnull readonly align 4 captures(none) dereferenceable(8) %6) local_unnamed_addr #12 align 2 {
  %8 = load i64, ptr %6, align 4
  %9 = getelementptr inbounds nuw i8, ptr %0, i64 96
  %10 = load i32, ptr %9, align 8, !tbaa !269
  %11 = getelementptr inbounds nuw i8, ptr %0, i64 100
  %12 = load i32, ptr %11, align 4, !tbaa !268
  %13 = icmp eq i32 %10, %12
  br i1 %13, label %14, label %._ZN8ImVectorI21ImFontAtlasCustomRectE7reserveEi.exit_crit_edge.i

._ZN8ImVectorI21ImFontAtlasCustomRectE7reserveEi.exit_crit_edge.i: ; preds = %7
  %.phi.trans.insert.i = getelementptr inbounds nuw i8, ptr %0, i64 104
  %.pre.i = load ptr, ptr %.phi.trans.insert.i, align 8, !tbaa !253
  br label %_ZN8ImVectorI21ImFontAtlasCustomRectE9push_backERKS0_.exit

14:                                               ; preds = %7
  %15 = add nsw i32 %10, 1
  %.not.i.i = icmp eq i32 %10, 0
  br i1 %.not.i.i, label %_ZNK8ImVectorI21ImFontAtlasCustomRectE14_grow_capacityEi.exit.i, label %16

16:                                               ; preds = %14
  %17 = sdiv i32 %10, 2
  %18 = add nsw i32 %17, %10
  br label %_ZNK8ImVectorI21ImFontAtlasCustomRectE14_grow_capacityEi.exit.i

_ZNK8ImVectorI21ImFontAtlasCustomRectE14_grow_capacityEi.exit.i: ; preds = %16, %14
  %19 = phi i32 [ %18, %16 ], [ 8, %14 ]
  %20 = tail call noundef i32 @llvm.smax.i32(i32 %19, i32 %15)
  %21 = sext i32 %20 to i64
  %22 = shl nsw i64 %21, 5
  %23 = tail call noundef ptr @_ZN5ImGui8MemAllocEm(i64 noundef %22)
  %24 = getelementptr inbounds nuw i8, ptr %0, i64 104
  %25 = load ptr, ptr %24, align 8, !tbaa !253
  %.not6.i.i = icmp eq ptr %25, null
  br i1 %.not6.i.i, label %31, label %26

26:                                               ; preds = %_ZNK8ImVectorI21ImFontAtlasCustomRectE14_grow_capacityEi.exit.i
  %27 = load i32, ptr %9, align 8, !tbaa !269
  %28 = sext i32 %27 to i64
  %29 = shl nsw i64 %28, 5
  tail call void @llvm.memcpy.p0.p0.i64(ptr align 8 %23, ptr nonnull align 8 %25, i64 %29, i1 false)
  %30 = load ptr, ptr %24, align 8, !tbaa !253
  tail call void @_ZN5ImGui7MemFreeEPv(ptr noundef %30)
  br label %31

31:                                               ; preds = %26, %_ZNK8ImVectorI21ImFontAtlasCustomRectE14_grow_capacityEi.exit.i
  store ptr %23, ptr %24, align 8, !tbaa !253
  store i32 %20, ptr %11, align 4, !tbaa !268
  %.pre3.i = load i32, ptr %9, align 8, !tbaa !269
  br label %_ZN8ImVectorI21ImFontAtlasCustomRectE9push_backERKS0_.exit

_ZN8ImVectorI21ImFontAtlasCustomRectE9push_backERKS0_.exit: ; preds = %._ZN8ImVectorI21ImFontAtlasCustomRectE7reserveEi.exit_crit_edge.i, %31
  %32 = phi i32 [ %10, %._ZN8ImVectorI21ImFontAtlasCustomRectE7reserveEi.exit_crit_edge.i ], [ %.pre3.i, %31 ]
  %33 = phi ptr [ %.pre.i, %._ZN8ImVectorI21ImFontAtlasCustomRectE7reserveEi.exit_crit_edge.i ], [ %23, %31 ]
  %34 = zext i16 %2 to i32
  %35 = trunc i32 %4 to i16
  %36 = trunc i32 %3 to i16
  %37 = sext i32 %32 to i64
  %38 = getelementptr inbounds %struct.ImFontAtlasCustomRect, ptr %33, i64 %37
  store i16 -1, ptr %38, align 8
  %.sroa.4.0..sroa_idx = getelementptr inbounds nuw i8, ptr %38, i64 2
  store i16 -1, ptr %.sroa.4.0..sroa_idx, align 2
  %.sroa.5.0..sroa_idx = getelementptr inbounds nuw i8, ptr %38, i64 4
  store i16 %36, ptr %.sroa.5.0..sroa_idx, align 4
  %.sroa.7.0..sroa_idx = getelementptr inbounds nuw i8, ptr %38, i64 6
  store i16 %35, ptr %.sroa.7.0..sroa_idx, align 2
  %.sroa.8.0..sroa_idx = getelementptr inbounds nuw i8, ptr %38, i64 8
  store i32 %34, ptr %.sroa.8.0..sroa_idx, align 8
  %.sroa.9.0..sroa_idx = getelementptr inbounds nuw i8, ptr %38, i64 12
  store float %5, ptr %.sroa.9.0..sroa_idx, align 4
  %.sroa.10.0..sroa_idx = getelementptr inbounds nuw i8, ptr %38, i64 16
  store i64 %8, ptr %.sroa.10.0..sroa_idx, align 8
  %.sroa.11.0..sroa_idx = getelementptr inbounds nuw i8, ptr %38, i64 24
  store ptr %1, ptr %.sroa.11.0..sroa_idx, align 8
  %39 = load i32, ptr %9, align 8, !tbaa !269
  %40 = add nsw i32 %39, 1
  store i32 %40, ptr %9, align 8, !tbaa !269
  ret i32 %39
}